; Function Attrs: nofree norecurse nosync nounwind null_pointer_is_valid sspstrong memory(read, inaccessiblemem: none) uwtable
define internal i32 @rsakey_hash(ptr noundef readonly captures(none) %0) #3 {
  %2 = getelementptr inbounds nuw i8, ptr %0, i64 24
  %3 = load i16, ptr %2, align 8
  %4 = zext i16 %3 to i32
  %5 = getelementptr inbounds nuw i8, ptr %0, i64 8
  %6 = load ptr, ptr %5, align 8
  %7 = getelementptr inbounds nuw i8, ptr %0, i64 4
  %8 = load i32, ptr %7, align 4
  %9 = icmp sgt i32 %8, 0
  br i1 %9, label %.lr.ph.preheader.i, label %add_address_to_hash.exit

.lr.ph.preheader.i:                               ; preds = %1
  %wide.trip.count.i = zext nneg i32 %8 to i64
  br label %.lr.ph.i

.lr.ph.i:                                         ; preds = %.lr.ph.i, %.lr.ph.preheader.i
  %indvars.iv.i = phi i64 [ 0, %.lr.ph.preheader.i ], [ %indvars.iv.next.i, %.lr.ph.i ]
  %.01112.i = phi i32 [ %4, %.lr.ph.preheader.i ], [ %16, %.lr.ph.i ]
  %10 = getelementptr i8, ptr %6, i64 %indvars.iv.i
  %11 = load i8, ptr %10, align 1
  %12 = zext i8 %11 to i32
  %13 = add i32 %.01112.i, %12
  %14 = mul i32 %13, 1025
  %15 = lshr i32 %14, 6
  %16 = xor i32 %15, %14
  %indvars.iv.next.i = add nuw nsw i64 %indvars.iv.i, 1
  %exitcond.not.i = icmp eq i64 %indvars.iv.next.i, %wide.trip.count.i
  br i1 %exitcond.not.i, label %add_address_to_hash.exit, label %.lr.ph.i, !llvm.loop !11

add_address_to_hash.exit:                         ; preds = %.lr.ph.i, %1
  %.011.lcssa.i = phi i32 [ %4, %1 ], [ %16, %.lr.ph.i ]
  ret i32 %.011.lcssa.i
}